Certificate:
    Data:
        Version: 3 (0x2)
        Serial Number:
            67:94:a1:b8:a0:54:22:26:c8:c4:a4:46:c4:42:9a:95:32:b6:02:39
        Signature Algorithm: sha256WithRSAEncryption
        Issuer: C = GB, ST = Test State, L = Test Locality, O = Test Organisation, OU = Test Organizational Unit Name, CN = Test CA
        Validity
            Not Before: Sep 10 10:11:57 2019 GMT
            Not After : Oct 10 10:11:57 2019 GMT
        Subject: C = GB, ST = Test State, L = Test Locality, O = Test Organisation, OU = Test Organizational Unit Name, CN = Test CA
        Subject Public Key Info:
            Public Key Algorithm: rsaEncryption
                RSA Public-Key: (2048 bit)
                Modulus:
                    00:cf:4b:90:2d:c1:eb:09:ad:ec:3d:3c:92:40:2f:
                    72:a7:11:10:76:46:01:84:93:00:08:8b:4f:4d:55:
                    35:1b:b1:16:5d:95:af:d9:87:e1:f4:ce:d9:2e:d1:
                    76:8d:94:00:ee:08:9c:3f:8b:38:f7:86:44:7f:f2:
                    f3:f1:77:28:a9:4a:73:56:7a:b1:a8:ae:90:a1:86:
                    8a:84:c9:08:b2:95:e7:a2:29:c3:7f:27:4a:df:9d:
                    b7:14:66:04:06:cf:09:1b:c4:c6:76:bb:15:10:21:
                    4f:88:1c:a3:82:0e:8c:11:11:34:93:83:e6:6b:48:
                    6f:ab:ec:22:bb:30:72:61:ad:8b:82:94:22:08:78:
                    b8:e8:54:f4:0f:ad:b3:84:19:e7:cf:6c:87:83:2b:
                    56:cf:72:69:86:5a:8f:8a:55:08:ef:2d:74:29:8c:
                    4a:ff:75:a5:c7:78:9b:73:f1:3c:64:dc:fc:71:ee:
                    75:f4:59:19:d4:2f:4b:21:1d:f0:ab:36:c9:db:8d:
                    7a:c0:97:57:53:d0:45:94:6a:14:f2:a9:06:b8:cb:
                    b9:f7:d9:da:46:f4:19:10:42:4a:98:3d:08:f8:19:
                    2b:4b:85:3d:64:dd:f7:f2:da:d3:04:d5:62:34:d3:
                    97:dc:21:c0:37:e0:14:01:13:b6:b9:63:83:9f:d5:
                    4e:31
                Exponent: 65537 (0x10001)
        X509v3 extensions:
            X509v3 Subject Key Identifier:
                49:B3:00:00:FF:4C:2B:12:34:1A:8C:A8:2F:07:28:6E:50:AD:4F:1D
            X509v3 Authority Key Identifier:
                keyid:49:B3:00:00:FF:4C:2B:12:34:1A:8C:A8:2F:07:28:6E:50:AD:4F:1D

            X509v3 Basic Constraints: critical
                CA:TRUE
    Signature Algorithm: sha256WithRSAEncryption
         87:e2:b2:dd:5a:89:74:46:e7:e3:f1:e0:99:f8:de:95:dd:00:
         f9:77:b4:2b:d0:b2:14:e9:80:bb:62:50:99:fc:20:9d:7b:e1:
         e7:2a:51:2a:92:78:90:2c:22:14:86:d4:20:ad:4c:b2:17:72:
         3a:48:42:f0:59:34:de:f4:97:45:82:cc:be:bd:f9:2c:98:9e:
         21:0c:4c:77:65:d4:d7:ee:ff:c3:aa:0c:6c:fa:15:9f:6f:b0:
         7b:f5:c9:89:a3:a5:0f:e5:3b:26:27:41:55:11:e8:63:64:2e:
         98:6f:bf:77:7d:d7:8f:9d:03:c1:ab:16:fc:66:74:21:de:ad:
         9b:32:9f:13:40:76:ed:f0:40:0a:52:2e:a9:2c:8f:46:33:90:
         ee:84:e1:30:ef:ad:74:bd:46:44:c3:26:78:ce:e1:08:cc:31:
         92:ae:a9:36:7a:0c:b6:30:62:b1:2f:ae:ed:a3:56:9d:33:6c:
         80:f5:89:21:5b:9e:56:f8:13:98:e9:75:6c:94:46:30:48:76:
         dd:94:a2:da:24:47:c9:c7:3d:24:47:ff:ee:f1:9d:d7:22:c0:
         85:d0:59:5b:3f:db:2f:c6:8d:5f:30:e4:75:e0:55:7f:1a:41:
         28:a9:17:98:11:0e:99:21:9a:98:94:ed:58:1e:39:17:c9:4f:
         b9:d2:56:94

-----BEGIN CERTIFICATE-----
MIIEAzCCAuugAwIBAgIUZ5ShuKBUIibIxKRGxEKalTK2AjkwDQYJKoZIhvcNAQEL
BQAwgZAxCzAJBgNVBAYTAkdCMRMwEQYDVQQIDApUZXN0IFN0YXRlMRYwFAYDVQQH
DA1UZXN0IExvY2FsaXR5MRowGAYDVQQKDBFUZXN0IE9yZ2FuaXNhdGlvbjEmMCQG
A1UECwwdVGVzdCBPcmdhbml6YXRpb25hbCBVbml0IE5hbWUxEDAOBgNVBAMMB1Rl
c3QgQ0EwHhcNMTkwOTEwMTAxMTU3WhcNMTkxMDEwMTAxMTU3WjCBkDELMAkGA1UE
BhMCR0IxEzARBgNVBAgMClRlc3QgU3RhdGUxFjAUBgNVBAcMDVRlc3QgTG9jYWxp
dHkxGjAYBgNVBAoMEVRlc3QgT3JnYW5pc2F0aW9uMSYwJAYDVQQLDB1UZXN0IE9y
Z2FuaXphdGlvbmFsIFVuaXQgTmFtZTEQMA4GA1UEAwwHVGVzdCBDQTCCASIwDQYJ
KoZIhvcNAQEBBQADggEPADCCAQoCggEBAM9LkC3B6wmt7D08kkAvcqcREHZGAYST
AAiLT01VNRuxFl2Vr9mH4fTO2S7Rdo2UAO4InD+LOPeGRH/y8/F3KKlKc1Z6saiu
kKGGioTJCLKV56Ipw38nSt+dtxRmBAbPCRvExna7FRAhT4gco4IOjBERNJOD5mtI
b6vsIrswcmGti4KUIgh4uOhU9A+ts4QZ589sh4MrVs9yaYZaj4pVCO8tdCmMSv91
pcd4m3PxPGTc/HHudfRZGdQvSyEd8Ks2yduNesCXV1PQRZRqFPKpBrjLuffZ2kb0
GRBCSpg9CPgZK0uFPWTd9/La0wTVYjTTl9whwDfgFAETtrljg5/VTjECAwEAAaNT
MFEwHQYDVR0OBBYEFEmzAAD/TCsSNBqMqC8HKG5QrU8dMB8GA1UdIwQYMBaAFEmz
AAD/TCsSNBqMqC8HKG5QrU8dMA8GA1UdEwEB/wQFMAMBAf8wDQYJKoZIhvcNAQEL
BQADggEBAIfist1aiXRG5+Px4Jn43pXdAPl3tCvQshTpgLtiUJn8IJ174ecqUSqS
eJAsIhSG1CCtTLIXcjpIQvBZNN70l0WCzL69+SyYniEMTHdl1Nfu/8OqDGz6FZ9v
sHv1yYmjpQ/lOyYnQVUR6GNkLphvv3d914+dA8GrFvxmdCHerZsynxNAdu3wQApS
Lqksj0YzkO6E4TDvrXS9RkTDJnjO4QjMMZKuqTZ6DLYwYrEvru2jVp0zbID1iSFb
nlb4E5jpdWyURjBIdt2UotokR8nHPSRH/+7xndciwIXQWVs/2y/GjV8w5HXgVX8a
QSipF5gRDpkhmpiU7VgeORfJT7nSVpQ=
-----END CERTIFICATE-----
